(dp0
S'orderedProblemIds'
p1
(lp2
S'1-1-voter-eligibility'
p3
aS'1-2-basic-calculator'
p4
aS'1-3-temperature-converter'
p5
aS'1-4-circle-math'
p6
aS'1-5-shortest-program'
p7
aS'1-6-cylinder-volume'
p8
aS'1-7-dice-roll-simulator'
p9
asS'problems'
p10
(dp11
g7
(isrc.apps.command_school.programs
Problem
p12
(dp13
S'title'
p14
VShortest Program
p15
sS'skills'
p16
(lp17
Vcreativity
p18
asS'testIds'
p19
(lp20
sS'instructionId'
p21
S'instruction-1-5-shortest-program'
p22
sS'sampleIds'
p23
(lp24
sS'starterCodeId'
p25
S'starter-1-5-shortest-program'
p26
sS'solutionId'
p27
S'solution-1-5-shortest-program'
p28
sS'id'
p29
g7
sS'icon'
p30
Vfa-edit
p31
sbsg5
(isrc.apps.command_school.programs
Problem
p32
(dp33
g14
VTemperature Converter
p34
sg16
(lp35
Vcin
p36
aVcout
p37
aVarithmetic
p38
asg19
(lp39
sg21
S'instruction-1-3-temperature-converter'
p40
sg23
(lp41
S'sample1.txt1-3-temperature-converter'
p42
aS'sample2.txt1-3-temperature-converter'
p43
asg25
S'starter-1-3-temperature-converter'
p44
sg27
S'solution-1-3-temperature-converter'
p45
sg29
g5
sg30
Vfa-thermometer-half
p46
sbsg8
(isrc.apps.command_school.programs
Problem
p47
(dp48
g14
VCylinder Volume
p49
sg16
(lp50
Vcin
p51
aVcout
p52
aVarithmetic
p53
asg19
(lp54
sg21
S'instruction-1-6-cylinder-volume'
p55
sg23
(lp56
S'sample1.txt1-6-cylinder-volume'
p57
aS'sample2.txt1-6-cylinder-volume'
p58
asg25
S'starter-1-6-cylinder-volume'
p59
sg27
S'solution-1-6-cylinder-volume'
p60
sg29
g8
sg30
Vfa-edit
p61
sbsg9
(isrc.apps.command_school.programs
Problem
p62
(dp63
g14
VDice Roll Simulator
p64
sg16
(lp65
Vrandom, selection
p66
asg19
(lp67
sg21
S'instruction-1-7-dice-roll-simulator'
p68
sg23
(lp69
S'sample1.txt1-7-dice-roll-simulator'
p70
aS'sample2.txt1-7-dice-roll-simulator'
p71
aS'sample3.txt1-7-dice-roll-simulator'
p72
asg25
S'starter-1-7-dice-roll-simulator'
p73
sg27
S'solution-1-7-dice-roll-simulator'
p74
sg29
g9
sg30
Vfa-random
p75
sbsg6
(isrc.apps.command_school.programs
Problem
p76
(dp77
g14
VCircle Math
p78
sg16
(lp79
Vcin
p80
aVcout
p81
aVarithmetic
p82
asg19
(lp83
sg21
S'instruction-1-4-circle-math'
p84
sg23
(lp85
S'sample1.txt1-4-circle-math'
p86
aS'sample2.txt1-4-circle-math'
p87
asg25
S'starter-1-4-circle-math'
p88
sg27
S'solution-1-4-circle-math'
p89
sg29
g6
sg30
Vfa-pie-chart
p90
sbsg3
(isrc.apps.command_school.programs
Problem
p91
(dp92
g14
VVoter Eligibility
p93
sg16
(lp94
Vcin
p95
aVcout
p96
asg19
(lp97
sg21
S'instruction-1-1-voter-eligibility'
p98
sg23
(lp99
S'sample1.txt1-1-voter-eligibility'
p100
aS'sample2.txt1-1-voter-eligibility'
p101
asg25
S'starter-1-1-voter-eligibility'
p102
sg27
S'solution-1-1-voter-eligibility'
p103
sg29
g3
sg30
Vfa-address-card
p104
sbsg4
(isrc.apps.command_school.programs
Problem
p105
(dp106
g14
VBasic Calculator
p107
sg16
(lp108
Vcin
p109
aVcout
p110
asg19
(lp111
sg21
S'instruction-1-2-basic-calculator'
p112
sg23
(lp113
S'sample1.txt1-2-basic-calculator'
p114
aS'sample2.txt1-2-basic-calculator'
p115
aS'sample3.txt1-2-basic-calculator'
p116
asg25
S'starter-1-2-basic-calculator'
p117
sg27
S'solution-1-2-basic-calculator'
p118
sg29
g4
sg30
Vfa-calculator
p119
sbssS'starterCodes'
p120
(dp121
g73
(isrc.apps.command_school.programs
StarterCode
p122
(dp123
S'code'
p124
S'// Ensures we have randomness in the dice\n// CALL THIS FUNCTION ONCE AT THE TOP OF MAIN\nvoid seedRandomness()\n{\n\tsrand(1337); \n\t// srand(time(NULL)); <-- This is how we could have new random numbers every time we execute the program\n}\n\n// Returns a number in the range [low, high)\nint getRandomNumberInRange(int low, int high)\n{\n\treturn rand() % (high - low) + low;\n}\n'
p125
sg29
g73
sbsg102
(isrc.apps.command_school.programs
StarterCode
p126
(dp127
g124
S'#include <iostream>\nusing namespace std;\n\nint main() {\n\t\n}\n'
p128
sg29
g102
sbsg88
(isrc.apps.command_school.programs
StarterCode
p129
(dp130
g124
S''
p131
sg29
g88
sbsg44
(isrc.apps.command_school.programs
StarterCode
p132
(dp133
g124
S''
p134
sg29
g44
sbsg26
(isrc.apps.command_school.programs
StarterCode
p135
(dp136
g124
S''
p137
sg29
g26
sbsg117
(isrc.apps.command_school.programs
StarterCode
p138
(dp139
g124
S'#include <iostream>\nusing namespace std;\n\nint main() {\n\t\n}\n'
p140
sg29
g117
sbsg59
(isrc.apps.command_school.programs
StarterCode
p141
(dp142
g124
S''
p143
sg29
g59
sbssS'solutions'
p144
(dp145
g103
(isrc.apps.command_school.programs
Solution
p146
(dp147
g124
S'#include <iostream>\nusing namespace std;\n\nint main()\n{\n\tint age;\n\tint MIN_ELIGIBLE_AGE = 18;\n\n\tcout << "Please enter your age in years: ";\n\tcin >> age;\n\n\tif (age >= MIN_ELIGIBLE_AGE)\n\t{\n\t\tcout << "You are old enough to vote! \\\n\t\t\t\tSupport our nation and go vote!" << endl;\n\t}\n\telse\n\t{\n\t\tcout << "You are too young to vote!" << endl;\n\t}\n}'
p148
sg29
g103
sbsg28
(isrc.apps.command_school.programs
Solution
p149
(dp150
g124
S'int main(){}'
p151
sg29
g28
sbsg45
(isrc.apps.command_school.programs
Solution
p152
(dp153
g124
S'#include <iostream>\nusing namespace std;\n\n// Convert the celsius temperature to fahrenheit\ndouble toFahrenheit(double celsius)\n{\n\treturn celsius * 9.0 / 5.0 + 32;\n}\n\n// Convert the fahrenheit temperature to celsius\ndouble toCelsius(double fahrenheit)\n{\n\treturn (fahrenheit - 32) * 5.0 / 9.0;\n}\n\nint main()\n{\n\tdouble temperature;\n\tchar units;\n\n\tcout << "Please enter your units [c/f]: ";\n\tcin >> units;\n\n\tcout << "Please enter a temperature: ";\n\tcin >> temperature;\n\n\tif (units == \'c\')\n\t{\n\t\tcout << toFahrenheit(temperature) << " degrees F" << endl;\n\t}\n\telse if (units == \'f\')\n\t{\n\t\tcout << toCelsius(temperature) << " degrees C" << endl;\n\t}\n}\n'
p154
sg29
g45
sbsg118
(isrc.apps.command_school.programs
Solution
p155
(dp156
g124
S'#include <iostream>\nusing namespace std;\n\nint main()\n{\n\t// Declare variables\n\tdouble lhs, rhs, result;\n\tchar operation;\n\n\t// Prompt user for expression\n\tcout << "Calculator Program" << endl;\n\tcout << "Enter an expression: ";\n\tcin >> lhs >> operation >> rhs;\n\n\t// Evaluate expression\n\tif (operation == \'+\') \n\t{\n\t\tresult = lhs + rhs;\n\t}\n\telse if (operation == \'-\')\n\t{\n\t\tresult = lhs - rhs;\n\t}\n\telse if (operation == \'*\')\n\t{\n\t\tresult = lhs * rhs;\n\t}\n\telse if (operation == \'/\')\n\t{\n\t\tresult = lhs / rhs;\n\t}\n\telse\n\t{\n\t\tcout << "Invalid expression!" << endl;\n\n\t\t// Exit the program!\n\t\treturn 0;\n\t}\n\n\t// Output expression result\n\tcout << "result = " << result << endl;\t\n}'
p157
sg29
g118
sbsg60
(isrc.apps.command_school.programs
Solution
p158
(dp159
g124
S'#include <iostream>\n#include <cmath>\nusing namespace std;\n\nint main()\n{\n\t// Declare variables\n\tdouble V, w, h;\n\tconst double PI = 3.1415;\n\n\t// Read user data\n\tcout << "width (m): ";\n\tcin >> w;\n\tcout << "height (m): ";\n\tcin >> h;\n\n\t// Calculate volume\n\tV = PI * pow(w/2, 2) * h;\n\n\t// Output the volume\n\tcout << "volume = " << V << endl;\n}\n'
p160
sg29
g60
sbsg74
(isrc.apps.command_school.programs
Solution
p161
(dp162
g124
S'#include <iostream>\nusing namespace std;\n\n// Ensures we have randomness in the dice\n// CALL THIS FUNCTION ONCE AT THE TOP OF MAIN\nvoid seedRandomness()\n{\n\tsrand(1337); \n\t// srand(time(NULL)); <-- This is how we could have new random numbers every time we execute the program\n}\n\n// Returns a number in the range [low, high)\nint getRandomNumberInRange(int low, int high)\n{\n\treturn rand() % (high - low) + low;\n}\n\nint main()\n{\n\tint guess1;\n\tint guess2;\n\n\t// Random rolls\n\tint dice1 = getRandomNumberInRange(1, 6);\n\tint dice2 = getRandomNumberInRange(1, 6);\n\tint product = dice1 * dice2;\n\n\t// Get user guesses\n\tcout << "Guess the product of two dice!" << endl;\n\tcout << "player1 guess: ";\n\tcin >> guess1;\n\tcout << "player2 guess: ";\n\tcin >> guess2;\n\n\t// Output\n\tcout << "dice1: " << dice1 << endl;\n\tcout << "dice2: " << dice2 << endl;\n\tcout << "product = " << product << endl;\n\n\tif ( abs(product - guess1) < abs(product - guess2) )\n\t{\n\t\tcout << "player1 won!" << endl;\n\t}\n\telse if ( abs(product - guess1) > abs(product - guess2) )\n\t{\n\t\tcout << "player2 won!" << endl;\n\t}\n\telse {\n\t\tcout << "tie!" << endl;\n\t}\n}'
p163
sg29
g74
sbsg89
(isrc.apps.command_school.programs
Solution
p164
(dp165
g124
S'#include <iostream>\n#include <cmath>\nusing namespace std;\n\nint main()\n{\n\t// Declare variables\n\tdouble r;\n\tdouble area;\n\tdouble circumference;\n\tconst double PI = 3.1415;\n\n\t// Read user data\n\tcout << "Radius (m): ";\n\tcin >> r;\t\n\n\t// Calculations\n\tarea = PI * pow(r, 2);\n\tcircumference = 2 * PI * r;\n\n\t// Output data\n\tcout << "area = " << area << endl;\n\tcout << "circumference = " << circumference << endl;\n}\n'
p166
sg29
g89
sbssS'samples'
p167
(dp168
g86
(isrc.apps.command_school.programs
SampleCase
p169
(dp170
S'text'
p171
S'Radius (m): <i>10</i>\narea = 314.15\ncircumference = 62.83'
p172
sg29
g86
sbsg42
(isrc.apps.command_school.programs
SampleCase
p173
(dp174
g171
S'Please enter your units [c/f]: <i>c</i>\nPlease enter a temperature: <i>100</i>\n212 degrees F'
p175
sg29
g42
sbsg57
(isrc.apps.command_school.programs
SampleCase
p176
(dp177
g171
S'width (m): <i>10</i>\nheight (m): <i>5</i>\nvolume = 392.688'
p178
sg29
g57
sbsg100
(isrc.apps.command_school.programs
SampleCase
p179
(dp180
g171
S'Please enter your age in years: <i>10</i>\nYou are too young to vote!'
p181
sg29
g100
sbsg43
(isrc.apps.command_school.programs
SampleCase
p182
(dp183
g171
S'Please enter your units [c/f]: <i>f</i>\nPlease enter a temperature: <i>32</i>\n0 degrees C'
p184
sg29
g43
sbsg70
(isrc.apps.command_school.programs
SampleCase
p185
(dp186
g171
S'TODO\nGuess the product of two dice!\nplayer1 guess: <i>10</i>\nplayer2 guess: <i>12</i>\ndice1 = 3\ndice2 = 5\nproduct = 15\nplayer2 won!'
p187
sg29
g70
sbsg116
(isrc.apps.command_school.programs
SampleCase
p188
(dp189
g171
S'Calculator Program\nEnter an expression: <i>1 [] 2</i>\nInvalid expression!'
p190
sg29
g116
sbsg115
(isrc.apps.command_school.programs
SampleCase
p191
(dp192
g171
S'Calculator Program\nEnter an expression: <i>10 / -2.5</i>\nresult = -4'
p193
sg29
g115
sbsg71
(isrc.apps.command_school.programs
SampleCase
p194
(dp195
g171
S'TODO\nGuess the product of two dice!\nplayer1 guess: <i>18</i>\nplayer2 guess: <i>32</i>\ndice1 = 6\ndice2 = 4\nproduct = 24\nplayer1 won!'
p196
sg29
g71
sbsg58
(isrc.apps.command_school.programs
SampleCase
p197
(dp198
g171
S'width (m): <i>2.2</i>\nheight (m): <i>4.8</i>\nvolume = 18.2458'
p199
sg29
g58
sbsg72
(isrc.apps.command_school.programs
SampleCase
p200
(dp201
g171
S'TODO\nGuess the product of two dice!\nplayer1 guess: <i>12</i>\nplayer2 guess: <i>20</i>\ndice1 = 4\ndice2 = 4\nproduct = 16\ntie!'
p202
sg29
g72
sbsg101
(isrc.apps.command_school.programs
SampleCase
p203
(dp204
g171
S'Please enter your age in years: <i>20</i>\nYou are old enough to vote! Support our nation and go vote!'
p205
sg29
g101
sbsg87
(isrc.apps.command_school.programs
SampleCase
p206
(dp207
g171
S'Radius (m): <i>2.5</i>\narea = 19.6344\ncircumference = 15.7075'
p208
sg29
g87
sbsg114
(isrc.apps.command_school.programs
SampleCase
p209
(dp210
g171
S'Calculator Program\nEnter an expression: <i>1 + 2</i>\nresult = 3'
p211
sg29
g114
sbssS'instructions'
p212
(dp213
g22
(isrc.apps.command_school.programs
Instruction
p214
(dp215
g171
S'Write the shortest C++ program that still compiles!\n\nBe creative!\n\nHint: Consider what is actually needed for a program to compile'
p216
sg29
g22
sbsg55
(isrc.apps.command_school.programs
Instruction
p217
(dp218
g171
S'Write a program to calculate the volume of a cylinder.\n\nThe following is the equation to calculate the volume of a cylinder (<i>V</i>) given the width (<i>w</i>) and height (<i>h</i>):\n<b><i>V = &pi;(w/2)<sup>2</sup>h</i></b>'
p219
sg29
g55
sbsg98
(isrc.apps.command_school.programs
Instruction
p220
(dp221
g171
S'Write a C++ program to determine whether the user is old enough to vote in Michigan.\n\nYour program should prompt the user for their age in years.\nAny individual who is 18 years or older is eligible to vote in the U.S.\nYour program should print a message indicating whether the individual CAN or CANNOT vote.'
p222
sg29
g98
sbsg112
(isrc.apps.command_school.programs
Instruction
p223
(dp224
g171
S'Write a program to act as a basic calculator.\n\nYour calculator should allow users to enter one simple expression. An expression is defined as:\n<b><i>lhs operator rhs</i></b>\n\n<b>lhs</b> is the left-hand-side number in the expression\n<b>rhs</b> is the right-hand-side number in the expression\n<b>operator</b> is a simple arithmetic operation; our calculator supports <b>+, -, /, *</b>\n \nThe following expressions are valid:\n<pre>\n1 + 2\n-1.2 - 2\n2.5 * 10\n1.0 / 2\n</pre>\n\nIf the user enters an invalid expression, warn the user of their mistake.'
p225
sg29
g112
sbsg84
(isrc.apps.command_school.programs
Instruction
p226
(dp227
g171
S'Write a program to calculate the area and circumference of a circle with a given radius.\n\nAllow the user to input the radius in meters.\n\nThe following is the equation to calculate the area of a circle (<i>A</i>) given the radius (<i>r</i>):\n<b><i>A = &pi;r<sup>2</sup></i></b>\n\nThe following is the equation to calculate the circumference of a circle (<i>L</i>) given the radius (<i>r</i>):\n<b><i>L = 2&pi;r</i></b>\n\n\nHint: for &pi;, create a <i>const</i> variable with the value 3.1415. Alternatively, you could look up how to use <i>M_PI</i> from the cmath library.'
p228
sg29
g84
sbsg40
(isrc.apps.command_school.programs
Instruction
p229
(dp230
g171
S"Write a program that can convert temperature from Fahrenheit to Celsius and Celsius to Fahrenheit.\n\nYour temperature converter should allow the user to enter a temperature AND the units associated with that temperature. Users can enter the character <b>'c'</b> or the character <b>'f'</b> to indicate units. You can assume that users enter valid input.\n\nThe following is the equation to convert Fahrenheit to Celsius:\n<b><i>F = C * (9/5) + 32</i></b>"
p231
sg29
g40
sbsg68
(isrc.apps.command_school.programs
Instruction
p232
(dp233
g171
S'Write a program that simulates rolling two dice, allows two users to guess the product the two dice, and prints which user was closer.\n\nAssume there are two dice that contain values from 1 to 6.\nAssume the players are called player1 and player2.\nPrint the player who guessed closer to the product (or print that there was a tie).\n\nGrammar Note: "dice" is actually plural and the singular of "dice" is actually "die". For understanding purposes, I used "dice" to mean both plural and singular\n\nRandom:\nTo complete this problem, we need to simulate randomness. I advise using the <a href="http://www.cplusplus.com/reference/cstdlib/rand/">rand()</a> function. To use rand, you must seed it first (typically you would seed based on the time to obtain true random sequences, but we use a constant number to provide the same random sequence).'
p234
sg29
g68
sbss.